target datalayout = "e-m:e-p270:32:32-p271:32:32-p272:64:64-i64:64-i128:128-f80:128-n8:16:32:64-S128"
target triple = "x86_64-pc-linux-gnu"

%"class.zmq::ws_connecter_t" = type { %"class.zmq::stream_connecter_base_t", i8, i8, ptr }
%"class.zmq::stream_connecter_base_t" = type { %"class.zmq::own_t.base", %"class.zmq::io_object_t", ptr, i32, ptr, %"class.std::__cxx11::basic_string", ptr, i8, i8, i32, ptr }
%"class.zmq::own_t.base" = type <{ %"class.zmq::object_t.base", [4 x i8], %"struct.zmq::options_t", i8, [7 x i8], %"class.zmq::atomic_counter_t", i64, ptr, %"class.std::set.24", i32 }>
%"class.zmq::object_t.base" = type <{ ptr, ptr, i32 }>
%"struct.zmq::options_t" = type { i32, i32, i64, i8, [256 x i8], i32, i32, i32, i32, i32, i32, i32, i32, i8, %"struct.zmq::atomic_value_t", i32, i32, i32, i32, i32, i32, i64, i32, i32, i8, i32, i8, i8, i8, i8, i8, %"class.std::__cxx11::basic_string", %"class.std::__cxx11::basic_string", %"class.std::__cxx11::basic_string", i32, i32, i32, i32, %"class.std::vector", %"class.std::set", %"class.std::set", %"class.std::set.6", i32, i32, %"class.std::__cxx11::basic_string", %"class.std::__cxx11::basic_string", %"class.std::__cxx11::basic_string", [32 x i8], [32 x i8], [32 x i8], %"class.std::__cxx11::basic_string", %"class.std::__cxx11::basic_string", i32, i32, i8, i32, i8, i32, i8, i16, i32, i32, i32, %"class.std::__cxx11::basic_string", i8, i8, i8, i32, i32, i8, i32, %"class.std::map", i32, %"class.std::__cxx11::basic_string", %"class.std::__cxx11::basic_string", %"class.std::__cxx11::basic_string", %"class.std::__cxx11::basic_string", i8, %"class.std::vector.17", i8, %"class.std::vector.17", i8, %"class.std::vector.17", i8, i32, i8, i32, i32, i32, i32, i32, i8, i32 }
%"struct.zmq::atomic_value_t" = type { %"struct.std::atomic" }
%"struct.std::atomic" = type { %"struct.std::__atomic_base" }
%"struct.std::__atomic_base" = type { i32 }
%"class.std::vector" = type { %"struct.std::_Vector_base" }
%"struct.std::_Vector_base" = type { %"struct.std::_Vector_base<zmq::tcp_address_mask_t, std::allocator<zmq::tcp_address_mask_t>>::_Vector_impl" }
%"struct.std::_Vector_base<zmq::tcp_address_mask_t, std::allocator<zmq::tcp_address_mask_t>>::_Vector_impl" = type { %"struct.std::_Vector_base<zmq::tcp_address_mask_t, std::allocator<zmq::tcp_address_mask_t>>::_Vector_impl_data" }
%"struct.std::_Vector_base<zmq::tcp_address_mask_t, std::allocator<zmq::tcp_address_mask_t>>::_Vector_impl_data" = type { ptr, ptr, ptr }
%"class.std::set" = type { %"class.std::_Rb_tree" }
%"class.std::_Rb_tree" = type { %"struct.std::_Rb_tree<unsigned int, unsigned int, std::_Identity<unsigned int>, std::less<unsigned int>>::_Rb_tree_impl" }
%"struct.std::_Rb_tree<unsigned int, unsigned int, std::_Identity<unsigned int>, std::less<unsigned int>>::_Rb_tree_impl" = type { [8 x i8], %"struct.std::_Rb_tree_header" }
%"struct.std::_Rb_tree_header" = type { %"struct.std::_Rb_tree_node_base", i64 }
%"struct.std::_Rb_tree_node_base" = type { i32, ptr, ptr, ptr }
%"class.std::set.6" = type { %"class.std::_Rb_tree.7" }
%"class.std::_Rb_tree.7" = type { %"struct.std::_Rb_tree<int, int, std::_Identity<int>, std::less<int>>::_Rb_tree_impl" }
%"struct.std::_Rb_tree<int, int, std::_Identity<int>, std::less<int>>::_Rb_tree_impl" = type { [8 x i8], %"struct.std::_Rb_tree_header" }
%"class.std::map" = type { %"class.std::_Rb_tree.12" }
%"class.std::_Rb_tree.12" = type { %"struct.std::_Rb_tree<std::__cxx11::basic_string<char>, std::pair<const std::__cxx11::basic_string<char>, std::__cxx11::basic_string<char>>, std::_Select1st<std::pair<const std::__cxx11::basic_string<char>, std::__cxx11::basic_string<char>>>, std::less<std::__cxx11::basic_string<char>>>::_Rb_tree_impl" }
%"struct.std::_Rb_tree<std::__cxx11::basic_string<char>, std::pair<const std::__cxx11::basic_string<char>, std::__cxx11::basic_string<char>>, std::_Select1st<std::pair<const std::__cxx11::basic_string<char>, std::__cxx11::basic_string<char>>>, std::less<std::__cxx11::basic_string<char>>>::_Rb_tree_impl" = type { [8 x i8], %"struct.std::_Rb_tree_header" }
%"class.std::vector.17" = type { %"struct.std::_Vector_base.18" }
%"struct.std::_Vector_base.18" = type { %"struct.std::_Vector_base<unsigned char, std::allocator<unsigned char>>::_Vector_impl" }
%"struct.std::_Vector_base<unsigned char, std::allocator<unsigned char>>::_Vector_impl" = type { %"struct.std::_Vector_base<unsigned char, std::allocator<unsigned char>>::_Vector_impl_data" }
%"struct.std::_Vector_base<unsigned char, std::allocator<unsigned char>>::_Vector_impl_data" = type { ptr, ptr, ptr }
%"class.zmq::atomic_counter_t" = type { %"struct.std::atomic.22", [4 x i8] }
%"struct.std::atomic.22" = type { %"struct.std::__atomic_base.23" }
%"struct.std::__atomic_base.23" = type { i32 }
%"class.std::set.24" = type { %"class.std::_Rb_tree.25" }
%"class.std::_Rb_tree.25" = type { %"struct.std::_Rb_tree<zmq::own_t *, zmq::own_t *, std::_Identity<zmq::own_t *>, std::less<zmq::own_t *>>::_Rb_tree_impl" }
%"struct.std::_Rb_tree<zmq::own_t *, zmq::own_t *, std::_Identity<zmq::own_t *>, std::less<zmq::own_t *>>::_Rb_tree_impl" = type { [8 x i8], %"struct.std::_Rb_tree_header" }
%"class.zmq::io_object_t" = type { %"struct.zmq::i_poll_events", ptr }
%"struct.zmq::i_poll_events" = type { ptr }
%"class.std::__cxx11::basic_string" = type { %"struct.std::__cxx11::basic_string<char>::_Alloc_hider", i64, %union.anon }
%"struct.std::__cxx11::basic_string<char>::_Alloc_hider" = type { ptr }
%union.anon = type { i64, [8 x i8] }
%"class.zmq::own_t" = type <{ %"class.zmq::object_t.base", [4 x i8], %"struct.zmq::options_t", i8, [7 x i8], %"class.zmq::atomic_counter_t", i64, ptr, %"class.std::set.24", i32, [4 x i8] }>
%"struct.zmq::endpoint_uri_pair_t" = type <{ %"class.std::__cxx11::basic_string", %"class.std::__cxx11::basic_string", i32, [4 x i8] }>

; Function Attrs: mustprogress uwtable
define void @_ZN3zmq14ws_connecter_t17add_connect_timerEv(ptr noundef nonnull align 8 dereferenceable(1560) %0) #0 align 2 {
  %2 = alloca ptr, align 8
  store ptr %0, ptr %2, align 8, !tbaa !3
  %3 = load ptr, ptr %2, align 8
  %4 = getelementptr inbounds nuw %"class.zmq::own_t", ptr %3, i32 0, i32 2
  %5 = getelementptr inbounds nuw %"struct.zmq::options_t", ptr %4, i32 0, i32 15
  %6 = load i32, ptr %5, align 4, !tbaa !100
  %7 = icmp sgt i32 %6, 0
  br i1 %7, label %8, label %14

8:                                                ; preds = %1
  %9 = getelementptr inbounds i8, ptr %3, i64 1448
  %10 = getelementptr inbounds nuw %"class.zmq::own_t", ptr %3, i32 0, i32 2
  %11 = getelementptr inbounds nuw %"struct.zmq::options_t", ptr %10, i32 0, i32 15
  %12 = load i32, ptr %11, align 4, !tbaa !100
  call void @_ZN3zmq11io_object_t9add_timerEii(ptr noundef nonnull align 8 dereferenceable(16) %9, i32 noundef %12, i32 noundef 2)
  %13 = getelementptr inbounds nuw %"class.zmq::ws_connecter_t", ptr %3, i32 0, i32 1
  store i8 1, ptr %13, align 8, !tbaa !24
  br label %14

14:                                               ; preds = %8, %1
  ret void
}

; Function Attrs: mustprogress uwtable
define void @_ZN3zmq14ws_connecter_t16start_connectingEv(ptr noundef nonnull align 8 dereferenceable(1560) %0) unnamed_addr #0 align 2 personality ptr @__gxx_personality_v0 {
  %2 = alloca ptr, align 8
  %3 = alloca i32, align 4
  %4 = alloca %"struct.zmq::endpoint_uri_pair_t", align 8
  %5 = alloca ptr, align 8
  %6 = alloca i32, align 4
  store ptr %0, ptr %2, align 8, !tbaa !3
  %7 = load ptr, ptr %2, align 8
  call void @llvm.lifetime.start.p0(i64 4, ptr %3) #16
  %8 = call noundef i32 @_ZN3zmq14ws_connecter_t4openEv(ptr noundef nonnull align 8 dereferenceable(1560) %7)
  store i32 %8, ptr %3, align 4, !tbaa !84
  %9 = load i32, ptr %3, align 4, !tbaa !84
  %10 = icmp eq i32 %9, 0
  br i1 %10, label %11, label %17

11:                                               ; preds = %1
  %12 = getelementptr inbounds i8, ptr %7, i64 1448
  %13 = getelementptr inbounds nuw %"class.zmq::stream_connecter_base_t", ptr %7, i32 0, i32 3
  %14 = load i32, ptr %13, align 8, !tbaa !85
  %15 = call noundef ptr @_ZN3zmq11io_object_t6add_fdEi(ptr noundef nonnull align 8 dereferenceable(16) %12, i32 noundef %14)
  %16 = getelementptr inbounds nuw %"class.zmq::stream_connecter_base_t", ptr %7, i32 0, i32 4
  store ptr %15, ptr %16, align 8, !tbaa !97
  call void @_ZN3zmq14ws_connecter_t9out_eventEv(ptr noundef nonnull align 8 dereferenceable(1560) %7)
  br label %50

17:                                               ; preds = %1
  %18 = load i32, ptr %3, align 4, !tbaa !84
  %19 = icmp eq i32 %18, -1
  br i1 %19, label %20, label %43

20:                                               ; preds = %17
  %21 = call ptr @__errno_location() #19
  %22 = load i32, ptr %21, align 4, !tbaa !84
  %23 = icmp eq i32 %22, 115
  br i1 %23, label %24, label %43

24:                                               ; preds = %20
  %25 = getelementptr inbounds i8, ptr %7, i64 1448
  %26 = getelementptr inbounds nuw %"class.zmq::stream_connecter_base_t", ptr %7, i32 0, i32 3
  %27 = load i32, ptr %26, align 8, !tbaa !85
  %28 = call noundef ptr @_ZN3zmq11io_object_t6add_fdEi(ptr noundef nonnull align 8 dereferenceable(16) %25, i32 noundef %27)
  %29 = getelementptr inbounds nuw %"class.zmq::stream_connecter_base_t", ptr %7, i32 0, i32 4
  store ptr %28, ptr %29, align 8, !tbaa !97
  %30 = getelementptr inbounds i8, ptr %7, i64 1448
  %31 = getelementptr inbounds nuw %"class.zmq::stream_connecter_base_t", ptr %7, i32 0, i32 4
  %32 = load ptr, ptr %31, align 8, !tbaa !97
  call void @_ZN3zmq11io_object_t11set_polloutEPv(ptr noundef nonnull align 8 dereferenceable(16) %30, ptr noundef %32)
  %33 = getelementptr inbounds nuw %"class.zmq::stream_connecter_base_t", ptr %7, i32 0, i32 6
  %34 = load ptr, ptr %33, align 8, !tbaa !94
  call void @llvm.lifetime.start.p0(i64 72, ptr %4) #16
  %35 = getelementptr inbounds nuw %"class.zmq::stream_connecter_base_t", ptr %7, i32 0, i32 5
  call void @_ZN3zmq38make_unconnected_connect_endpoint_pairERKNSt7__cxx1112basic_stringIcSt11char_traitsIcESaIcEEE(ptr dead_on_unwind writable sret(%"struct.zmq::endpoint_uri_pair_t") align 8 %4, ptr noundef nonnull align 8 dereferenceable(32) %35)
  %36 = invoke i32 @zmq_errno()
          to label %37 unwind label %39

37:                                               ; preds = %24
  invoke void @_ZN3zmq13socket_base_t21event_connect_delayedERKNS_19endpoint_uri_pair_tEi(ptr noundef nonnull align 8 dereferenceable(1825) %34, ptr noundef nonnull align 8 dereferenceable(68) %4, i32 noundef %36)
          to label %38 unwind label %39

38:                                               ; preds = %37
  call void @_ZN3zmq19endpoint_uri_pair_tD2Ev(ptr noundef nonnull align 8 dereferenceable(68) %4) #16
  call void @llvm.lifetime.end.p0(i64 72, ptr %4) #16
  call void @_ZN3zmq14ws_connecter_t17add_connect_timerEv(ptr noundef nonnull align 8 dereferenceable(1560) %7)
  br label %49

39:                                               ; preds = %37, %24
  %40 = landingpad { ptr, i32 }
          cleanup
  %41 = extractvalue { ptr, i32 } %40, 0
  store ptr %41, ptr %5, align 8
  %42 = extractvalue { ptr, i32 } %40, 1
  store i32 %42, ptr %6, align 4
  call void @_ZN3zmq19endpoint_uri_pair_tD2Ev(ptr noundef nonnull align 8 dereferenceable(68) %4) #16
  call void @llvm.lifetime.end.p0(i64 72, ptr %4) #16
  call void @llvm.lifetime.end.p0(i64 4, ptr %3) #16
  br label %51

43:                                               ; preds = %20, %17
  %44 = getelementptr inbounds nuw %"class.zmq::stream_connecter_base_t", ptr %7, i32 0, i32 3
  %45 = load i32, ptr %44, align 8, !tbaa !85
  %46 = icmp ne i32 %45, -1
  br i1 %46, label %47, label %48

47:                                               ; preds = %43
  call void @_ZN3zmq23stream_connecter_base_t5closeEv(ptr noundef nonnull align 8 dereferenceable(1544) %7)
  br label %48

48:                                               ; preds = %47, %43
  call void @_ZN3zmq23stream_connecter_base_t19add_reconnect_timerEv(ptr noundef nonnull align 8 dereferenceable(1544) %7)
  br label %49

49:                                               ; preds = %48, %38
  br label %50

50:                                               ; preds = %49, %11
  call void @llvm.lifetime.end.p0(i64 4, ptr %3) #16
  ret void

51:                                               ; preds = %39
  %52 = load ptr, ptr %5, align 8
  %53 = load i32, ptr %6, align 4
  %54 = insertvalue { ptr, i32 } poison, ptr %52, 0
  %55 = insertvalue { ptr, i32 } %54, i32 %53, 1
  resume { ptr, i32 } %55
}